#include <math.h>
#include <stdio.h>
#include <stdlib.h>
#include <string.h>

struct student
{
	long int num;
	int Chinese;
	int Maths;
	int total;
};
void main()
{
	struct student stu[100000];
	struct student tempt;
	int n,i;
	scanf("%d",&n);
	for(i=0;i<n;i++){
		scanf("%d %d %d",&stu[i].num,&stu[i].Chinese,&stu[i].Maths);
		stu[i].total=stu[i].Chinese+stu[i].Maths;
	}
	if(stu[2].total>stu[1].total){
		tempt=stu[1];
		stu[1]=stu[2];
		stu[2]=tempt;
	}
	if(stu[1].total>stu[0].total){
		tempt=stu[0];
		stu[0]=stu[1];
		stu[1]=tempt;
	}
    if(stu[2].total>stu[1].total){
		tempt=stu[1];
		stu[1]=stu[2];
		stu[2]=tempt;
	}
	for(i=3;i<n;i++){
		if(stu[i].total>stu[2].total){
			stu[2]=stu[i];
			if(stu[2].total>stu[1].total){
				tempt=stu[1];
			    stu[1]=stu[2];
		        stu[2]=tempt;
				if(stu[1].total>stu[0].total){
					tempt=stu[0];
		            stu[0]=stu[1];
	                stu[1]=tempt;
				}
			}
		}
	}
	printf("%d %d\n",stu[0].num,stu[0].total);
	printf("%d %d\n",stu[1].num,stu[1].total);
	printf("%d %d\n",stu[2].num,stu[2].total);
}