target datalayout = "e-m:e-p270:32:32-p271:32:32-p272:64:64-i64:64-f80:128-n8:16:32:64-S128"
target triple = "x86_64-pc-linux-gnu"

%struct.student = type { i64, i32, i32, i32 }

@.str = private unnamed_addr constant [3 x i8] c"%d\00", align 1
@.str.1 = private unnamed_addr constant [9 x i8] c"%d %d %d\00", align 1
@.str.2 = private unnamed_addr constant [7 x i8] c"%d %d\0A\00", align 1

; Function Attrs: noinline nounwind uwtable
define dso_local void @main() #0 {
  %1 = alloca [100000 x %struct.student], align 16
  %2 = alloca %struct.student, align 8
  %3 = alloca i32, align 4
  %4 = alloca i32, align 4
  %5 = call i32 (i8*, ...) @__isoc99_scanf(i8* getelementptr inbounds ([3 x i8], [3 x i8]* @.str, i64 0, i64 0), i32* %3)
  store i32 0, i32* %4, align 4
  br label %6

6:                                                ; preds = %39, %0
  %7 = load i32, i32* %4, align 4
  %8 = load i32, i32* %3, align 4
  %9 = icmp slt i32 %7, %8
  br i1 %9, label %10, label %42

10:                                               ; preds = %6
  %11 = load i32, i32* %4, align 4
  %12 = sext i32 %11 to i64
  %13 = getelementptr inbounds [100000 x %struct.student], [100000 x %struct.student]* %1, i64 0, i64 %12
  %14 = getelementptr inbounds %struct.student, %struct.student* %13, i32 0, i32 0
  %15 = load i32, i32* %4, align 4
  %16 = sext i32 %15 to i64
  %17 = getelementptr inbounds [100000 x %struct.student], [100000 x %struct.student]* %1, i64 0, i64 %16
  %18 = getelementptr inbounds %struct.student, %struct.student* %17, i32 0, i32 1
  %19 = load i32, i32* %4, align 4
  %20 = sext i32 %19 to i64
  %21 = getelementptr inbounds [100000 x %struct.student], [100000 x %struct.student]* %1, i64 0, i64 %20
  %22 = getelementptr inbounds %struct.student, %struct.student* %21, i32 0, i32 2
  %23 = call i32 (i8*, ...) @__isoc99_scanf(i8* getelementptr inbounds ([9 x i8], [9 x i8]* @.str.1, i64 0, i64 0), i64* %14, i32* %18, i32* %22)
  %24 = load i32, i32* %4, align 4
  %25 = sext i32 %24 to i64
  %26 = getelementptr inbounds [100000 x %struct.student], [100000 x %struct.student]* %1, i64 0, i64 %25
  %27 = getelementptr inbounds %struct.student, %struct.student* %26, i32 0, i32 1
  %28 = load i32, i32* %27, align 8
  %29 = load i32, i32* %4, align 4
  %30 = sext i32 %29 to i64
  %31 = getelementptr inbounds [100000 x %struct.student], [100000 x %struct.student]* %1, i64 0, i64 %30
  %32 = getelementptr inbounds %struct.student, %struct.student* %31, i32 0, i32 2
  %33 = load i32, i32* %32, align 4
  %34 = add nsw i32 %28, %33
  %35 = load i32, i32* %4, align 4
  %36 = sext i32 %35 to i64
  %37 = getelementptr inbounds [100000 x %struct.student], [100000 x %struct.student]* %1, i64 0, i64 %36
  %38 = getelementptr inbounds %struct.student, %struct.student* %37, i32 0, i32 3
  store i32 %34, i32* %38, align 8
  br label %39

39:                                               ; preds = %10
  %40 = load i32, i32* %4, align 4
  %41 = add nsw i32 %40, 1
  store i32 %41, i32* %4, align 4
  br label %6

42:                                               ; preds = %6
  %43 = getelementptr inbounds [100000 x %struct.student], [100000 x %struct.student]* %1, i64 0, i64 2
  %44 = getelementptr inbounds %struct.student, %struct.student* %43, i32 0, i32 3
  %45 = load i32, i32* %44, align 16
  %46 = getelementptr inbounds [100000 x %struct.student], [100000 x %struct.student]* %1, i64 0, i64 1
  %47 = getelementptr inbounds %struct.student, %struct.student* %46, i32 0, i32 3
  %48 = load i32, i32* %47, align 8
  %49 = icmp sgt i32 %45, %48
  br i1 %49, label %50, label %61

50:                                               ; preds = %42
  %51 = getelementptr inbounds [100000 x %struct.student], [100000 x %struct.student]* %1, i64 0, i64 1
  %52 = bitcast %struct.student* %2 to i8*
  %53 = bitcast %struct.student* %51 to i8*
  call void @llvm.memcpy.p0i8.p0i8.i64(i8* align 8 %52, i8* align 8 %53, i64 24, i1 false)
  %54 = getelementptr inbounds [100000 x %struct.student], [100000 x %struct.student]* %1, i64 0, i64 1
  %55 = getelementptr inbounds [100000 x %struct.student], [100000 x %struct.student]* %1, i64 0, i64 2
  %56 = bitcast %struct.student* %54 to i8*
  %57 = bitcast %struct.student* %55 to i8*
  call void @llvm.memcpy.p0i8.p0i8.i64(i8* align 8 %56, i8* align 16 %57, i64 24, i1 false)
  %58 = getelementptr inbounds [100000 x %struct.student], [100000 x %struct.student]* %1, i64 0, i64 2
  %59 = bitcast %struct.student* %58 to i8*
  %60 = bitcast %struct.student* %2 to i8*
  call void @llvm.memcpy.p0i8.p0i8.i64(i8* align 16 %59, i8* align 8 %60, i64 24, i1 false)
  br label %61

61:                                               ; preds = %50, %42
  %62 = getelementptr inbounds [100000 x %struct.student], [100000 x %struct.student]* %1, i64 0, i64 1
  %63 = getelementptr inbounds %struct.student, %struct.student* %62, i32 0, i32 3
  %64 = load i32, i32* %63, align 8
  %65 = getelementptr inbounds [100000 x %struct.student], [100000 x %struct.student]* %1, i64 0, i64 0
  %66 = getelementptr inbounds %struct.student, %struct.student* %65, i32 0, i32 3
  %67 = load i32, i32* %66, align 16
  %68 = icmp sgt i32 %64, %67
  br i1 %68, label %69, label %80

69:                                               ; preds = %61
  %70 = getelementptr inbounds [100000 x %struct.student], [100000 x %struct.student]* %1, i64 0, i64 0
  %71 = bitcast %struct.student* %2 to i8*
  %72 = bitcast %struct.student* %70 to i8*
  call void @llvm.memcpy.p0i8.p0i8.i64(i8* align 8 %71, i8* align 16 %72, i64 24, i1 false)
  %73 = getelementptr inbounds [100000 x %struct.student], [100000 x %struct.student]* %1, i64 0, i64 0
  %74 = getelementptr inbounds [100000 x %struct.student], [100000 x %struct.student]* %1, i64 0, i64 1
  %75 = bitcast %struct.student* %73 to i8*
  %76 = bitcast %struct.student* %74 to i8*
  call void @llvm.memcpy.p0i8.p0i8.i64(i8* align 16 %75, i8* align 8 %76, i64 24, i1 false)
  %77 = getelementptr inbounds [100000 x %struct.student], [100000 x %struct.student]* %1, i64 0, i64 1
  %78 = bitcast %struct.student* %77 to i8*
  %79 = bitcast %struct.student* %2 to i8*
  call void @llvm.memcpy.p0i8.p0i8.i64(i8* align 8 %78, i8* align 8 %79, i64 24, i1 false)
  br label %80

80:                                               ; preds = %69, %61
  %81 = getelementptr inbounds [100000 x %struct.student], [100000 x %struct.student]* %1, i64 0, i64 2
  %82 = getelementptr inbounds %struct.student, %struct.student* %81, i32 0, i32 3
  %83 = load i32, i32* %82, align 16
  %84 = getelementptr inbounds [100000 x %struct.student], [100000 x %struct.student]* %1, i64 0, i64 1
  %85 = getelementptr inbounds %struct.student, %struct.student* %84, i32 0, i32 3
  %86 = load i32, i32* %85, align 8
  %87 = icmp sgt i32 %83, %86
  br i1 %87, label %88, label %99

88:                                               ; preds = %80
  %89 = getelementptr inbounds [100000 x %struct.student], [100000 x %struct.student]* %1, i64 0, i64 1
  %90 = bitcast %struct.student* %2 to i8*
  %91 = bitcast %struct.student* %89 to i8*
  call void @llvm.memcpy.p0i8.p0i8.i64(i8* align 8 %90, i8* align 8 %91, i64 24, i1 false)
  %92 = getelementptr inbounds [100000 x %struct.student], [100000 x %struct.student]* %1, i64 0, i64 1
  %93 = getelementptr inbounds [100000 x %struct.student], [100000 x %struct.student]* %1, i64 0, i64 2
  %94 = bitcast %struct.student* %92 to i8*
  %95 = bitcast %struct.student* %93 to i8*
  call void @llvm.memcpy.p0i8.p0i8.i64(i8* align 8 %94, i8* align 16 %95, i64 24, i1 false)
  %96 = getelementptr inbounds [100000 x %struct.student], [100000 x %struct.student]* %1, i64 0, i64 2
  %97 = bitcast %struct.student* %96 to i8*
  %98 = bitcast %struct.student* %2 to i8*
  call void @llvm.memcpy.p0i8.p0i8.i64(i8* align 16 %97, i8* align 8 %98, i64 24, i1 false)
  br label %99

99:                                               ; preds = %88, %80
  store i32 3, i32* %4, align 4
  br label %100

100:                                              ; preds = %160, %99
  %101 = load i32, i32* %4, align 4
  %102 = load i32, i32* %3, align 4
  %103 = icmp slt i32 %101, %102
  br i1 %103, label %104, label %163

104:                                              ; preds = %100
  %105 = load i32, i32* %4, align 4
  %106 = sext i32 %105 to i64
  %107 = getelementptr inbounds [100000 x %struct.student], [100000 x %struct.student]* %1, i64 0, i64 %106
  %108 = getelementptr inbounds %struct.student, %struct.student* %107, i32 0, i32 3
  %109 = load i32, i32* %108, align 8
  %110 = getelementptr inbounds [100000 x %struct.student], [100000 x %struct.student]* %1, i64 0, i64 2
  %111 = getelementptr inbounds %struct.student, %struct.student* %110, i32 0, i32 3
  %112 = load i32, i32* %111, align 16
  %113 = icmp sgt i32 %109, %112
  br i1 %113, label %114, label %159

114:                                              ; preds = %104
  %115 = getelementptr inbounds [100000 x %struct.student], [100000 x %struct.student]* %1, i64 0, i64 2
  %116 = load i32, i32* %4, align 4
  %117 = sext i32 %116 to i64
  %118 = getelementptr inbounds [100000 x %struct.student], [100000 x %struct.student]* %1, i64 0, i64 %117
  %119 = bitcast %struct.student* %115 to i8*
  %120 = bitcast %struct.student* %118 to i8*
  call void @llvm.memcpy.p0i8.p0i8.i64(i8* align 16 %119, i8* align 8 %120, i64 24, i1 false)
  %121 = getelementptr inbounds [100000 x %struct.student], [100000 x %struct.student]* %1, i64 0, i64 2
  %122 = getelementptr inbounds %struct.student, %struct.student* %121, i32 0, i32 3
  %123 = load i32, i32* %122, align 16
  %124 = getelementptr inbounds [100000 x %struct.student], [100000 x %struct.student]* %1, i64 0, i64 1
  %125 = getelementptr inbounds %struct.student, %struct.student* %124, i32 0, i32 3
  %126 = load i32, i32* %125, align 8
  %127 = icmp sgt i32 %123, %126
  br i1 %127, label %128, label %158

128:                                              ; preds = %114
  %129 = getelementptr inbounds [100000 x %struct.student], [100000 x %struct.student]* %1, i64 0, i64 1
  %130 = bitcast %struct.student* %2 to i8*
  %131 = bitcast %struct.student* %129 to i8*
  call void @llvm.memcpy.p0i8.p0i8.i64(i8* align 8 %130, i8* align 8 %131, i64 24, i1 false)
  %132 = getelementptr inbounds [100000 x %struct.student], [100000 x %struct.student]* %1, i64 0, i64 1
  %133 = getelementptr inbounds [100000 x %struct.student], [100000 x %struct.student]* %1, i64 0, i64 2
  %134 = bitcast %struct.student* %132 to i8*
  %135 = bitcast %struct.student* %133 to i8*
  call void @llvm.memcpy.p0i8.p0i8.i64(i8* align 8 %134, i8* align 16 %135, i64 24, i1 false)
  %136 = getelementptr inbounds [100000 x %struct.student], [100000 x %struct.student]* %1, i64 0, i64 2
  %137 = bitcast %struct.student* %136 to i8*
  %138 = bitcast %struct.student* %2 to i8*
  call void @llvm.memcpy.p0i8.p0i8.i64(i8* align 16 %137, i8* align 8 %138, i64 24, i1 false)
  %139 = getelementptr inbounds [100000 x %struct.student], [100000 x %struct.student]* %1, i64 0, i64 1
  %140 = getelementptr inbounds %struct.student, %struct.student* %139, i32 0, i32 3
  %141 = load i32, i32* %140, align 8
  %142 = getelementptr inbounds [100000 x %struct.student], [100000 x %struct.student]* %1, i64 0, i64 0
  %143 = getelementptr inbounds %struct.student, %struct.student* %142, i32 0, i32 3
  %144 = load i32, i32* %143, align 16
  %145 = icmp sgt i32 %141, %144
  br i1 %145, label %146, label %157

146:                                              ; preds = %128
  %147 = getelementptr inbounds [100000 x %struct.student], [100000 x %struct.student]* %1, i64 0, i64 0
  %148 = bitcast %struct.student* %2 to i8*
  %149 = bitcast %struct.student* %147 to i8*
  call void @llvm.memcpy.p0i8.p0i8.i64(i8* align 8 %148, i8* align 16 %149, i64 24, i1 false)
  %150 = getelementptr inbounds [100000 x %struct.student], [100000 x %struct.student]* %1, i64 0, i64 0
  %151 = getelementptr inbounds [100000 x %struct.student], [100000 x %struct.student]* %1, i64 0, i64 1
  %152 = bitcast %struct.student* %150 to i8*
  %153 = bitcast %struct.student* %151 to i8*
  call void @llvm.memcpy.p0i8.p0i8.i64(i8* align 16 %152, i8* align 8 %153, i64 24, i1 false)
  %154 = getelementptr inbounds [100000 x %struct.student], [100000 x %struct.student]* %1, i64 0, i64 1
  %155 = bitcast %struct.student* %154 to i8*
  %156 = bitcast %struct.student* %2 to i8*
  call void @llvm.memcpy.p0i8.p0i8.i64(i8* align 8 %155, i8* align 8 %156, i64 24, i1 false)
  br label %157

157:                                              ; preds = %146, %128
  br label %158

158:                                              ; preds = %157, %114
  br label %159

159:                                              ; preds = %158, %104
  br label %160

160:                                              ; preds = %159
  %161 = load i32, i32* %4, align 4
  %162 = add nsw i32 %161, 1
  store i32 %162, i32* %4, align 4
  br label %100

163:                                              ; preds = %100
  %164 = getelementptr inbounds [100000 x %struct.student], [100000 x %struct.student]* %1, i64 0, i64 0
  %165 = getelementptr inbounds %struct.student, %struct.student* %164, i32 0, i32 0
  %166 = load i64, i64* %165, align 16
  %167 = getelementptr inbounds [100000 x %struct.student], [100000 x %struct.student]* %1, i64 0, i64 0
  %168 = getelementptr inbounds %struct.student, %struct.student* %167, i32 0, i32 3
  %169 = load i32, i32* %168, align 16
  %170 = call i32 (i8*, ...) @printf(i8* getelementptr inbounds ([7 x i8], [7 x i8]* @.str.2, i64 0, i64 0), i64 %166, i32 %169)
  %171 = getelementptr inbounds [100000 x %struct.student], [100000 x %struct.student]* %1, i64 0, i64 1
  %172 = getelementptr inbounds %struct.student, %struct.student* %171, i32 0, i32 0
  %173 = load i64, i64* %172, align 8
  %174 = getelementptr inbounds [100000 x %struct.student], [100000 x %struct.student]* %1, i64 0, i64 1
  %175 = getelementptr inbounds %struct.student, %struct.student* %174, i32 0, i32 3
  %176 = load i32, i32* %175, align 8
  %177 = call i32 (i8*, ...) @printf(i8* getelementptr inbounds ([7 x i8], [7 x i8]* @.str.2, i64 0, i64 0), i64 %173, i32 %176)
  %178 = getelementptr inbounds [100000 x %struct.student], [100000 x %struct.student]* %1, i64 0, i64 2
  %179 = getelementptr inbounds %struct.student, %struct.student* %178, i32 0, i32 0
  %180 = load i64, i64* %179, align 16
  %181 = getelementptr inbounds [100000 x %struct.student], [100000 x %struct.student]* %1, i64 0, i64 2
  %182 = getelementptr inbounds %struct.student, %struct.student* %181, i32 0, i32 3
  %183 = load i32, i32* %182, align 16
  %184 = call i32 (i8*, ...) @printf(i8* getelementptr inbounds ([7 x i8], [7 x i8]* @.str.2, i64 0, i64 0), i64 %180, i32 %183)
  ret void
}